target datalayout = "e-m:e-p270:32:32-p271:32:32-p272:64:64-i64:64-i128:128-f80:128-n8:16:32:64-S128"
target triple = "x86_64-pc-linux-gnu"

%"struct.std::atomic.0" = type { %"struct.std::__atomic_base.1" }
%"struct.std::__atomic_base.1" = type { i32 }
%"class.enki::ICompletable" = type { ptr, i32, %"struct.std::atomic.0", %"struct.std::atomic.0", i32, %"struct.std::atomic.0", ptr }
%"class.enki::Dependency" = type { ptr, ptr, ptr }

; Function Attrs: mustprogress nounwind uwtable
define dso_local void @_ZN4enki10DependencyC2EOS0_(ptr noundef nonnull align 8 dereferenceable(24) %0, ptr noundef nonnull align 8 dereferenceable(24) %1) unnamed_addr #5 align 2 {
  %3 = alloca ptr, align 8
  %4 = alloca ptr, align 8
  %5 = alloca ptr, align 8
  store ptr %0, ptr %3, align 8, !tbaa !139
  store ptr %1, ptr %4, align 8, !tbaa !139
  %6 = load ptr, ptr %3, align 8
  %7 = getelementptr inbounds nuw %"class.enki::Dependency", ptr %6, i32 0, i32 0
  store ptr null, ptr %7, align 8, !tbaa !140
  %8 = getelementptr inbounds nuw %"class.enki::Dependency", ptr %6, i32 0, i32 1
  store ptr null, ptr %8, align 8, !tbaa !187
  %9 = getelementptr inbounds nuw %"class.enki::Dependency", ptr %6, i32 0, i32 2
  store ptr null, ptr %9, align 8, !tbaa !143
  %10 = load ptr, ptr %4, align 8, !tbaa !139
  %11 = getelementptr inbounds nuw %"class.enki::Dependency", ptr %10, i32 0, i32 1
  %12 = load ptr, ptr %11, align 8, !tbaa !187
  %13 = getelementptr inbounds nuw %"class.enki::Dependency", ptr %6, i32 0, i32 1
  store ptr %12, ptr %13, align 8, !tbaa !187
  %14 = load ptr, ptr %4, align 8, !tbaa !139
  %15 = getelementptr inbounds nuw %"class.enki::Dependency", ptr %14, i32 0, i32 0
  %16 = load ptr, ptr %15, align 8, !tbaa !140
  %17 = getelementptr inbounds nuw %"class.enki::Dependency", ptr %6, i32 0, i32 0
  store ptr %16, ptr %17, align 8, !tbaa !140
  %18 = load ptr, ptr %4, align 8, !tbaa !139
  %19 = getelementptr inbounds nuw %"class.enki::Dependency", ptr %18, i32 0, i32 2
  %20 = load ptr, ptr %19, align 8, !tbaa !143
  %21 = getelementptr inbounds nuw %"class.enki::Dependency", ptr %6, i32 0, i32 2
  store ptr %20, ptr %21, align 8, !tbaa !143
  %22 = load ptr, ptr %4, align 8, !tbaa !139
  %23 = getelementptr inbounds nuw %"class.enki::Dependency", ptr %22, i32 0, i32 1
  %24 = load ptr, ptr %23, align 8, !tbaa !187
  %25 = icmp ne ptr %24, null
  br i1 %25, label %26, label %46

26:                                               ; preds = %2
  call void @llvm.lifetime.start.p0(i64 8, ptr %5) #14
  %27 = getelementptr inbounds nuw %"class.enki::Dependency", ptr %6, i32 0, i32 1
  %28 = load ptr, ptr %27, align 8, !tbaa !187
  %29 = getelementptr inbounds nuw %"class.enki::ICompletable", ptr %28, i32 0, i32 6
  store ptr %29, ptr %5, align 8, !tbaa !188
  br label %30

30:                                               ; preds = %41, %26
  %31 = load ptr, ptr %5, align 8, !tbaa !188
  %32 = load ptr, ptr %31, align 8, !tbaa !139
  %33 = icmp ne ptr %32, null
  br i1 %33, label %34, label %45

34:                                               ; preds = %30
  %35 = load ptr, ptr %4, align 8, !tbaa !139
  %36 = load ptr, ptr %5, align 8, !tbaa !188
  %37 = load ptr, ptr %36, align 8, !tbaa !139
  %38 = icmp eq ptr %35, %37
  br i1 %38, label %39, label %41

39:                                               ; preds = %34
  %40 = load ptr, ptr %5, align 8, !tbaa !188
  store ptr %6, ptr %40, align 8, !tbaa !139
  br label %45

41:                                               ; preds = %34
  %42 = load ptr, ptr %5, align 8, !tbaa !188
  %43 = load ptr, ptr %42, align 8, !tbaa !139
  %44 = getelementptr inbounds nuw %"class.enki::Dependency", ptr %43, i32 0, i32 2
  store ptr %44, ptr %5, align 8, !tbaa !188
  br label %30, !llvm.loop !190

45:                                               ; preds = %39, %30
  call void @llvm.lifetime.end.p0(i64 8, ptr %5) #14
  br label %46

46:                                               ; preds = %45, %2
  ret void
}