; Function Attrs: mustprogress nofree norecurse nosync nounwind memory(readwrite, inaccessiblemem: none) uwtable
define dso_local void @_ZN4enki10DependencyC2EOS0_(ptr noundef nonnull align 8 dereferenceable(24) initializes((0, 24)) %0, ptr noundef nonnull readonly align 8 captures(address) dereferenceable(24) %1) unnamed_addr #25 align 2 {
  %3 = getelementptr inbounds nuw i8, ptr %0, i64 8
  %4 = getelementptr inbounds nuw i8, ptr %0, i64 16
  %5 = getelementptr inbounds nuw i8, ptr %1, i64 8
  tail call void @llvm.memset.p0.i64(ptr noundef nonnull align 8 dereferenceable(24) %0, i8 0, i64 24, i1 false)
  %6 = load ptr, ptr %5, align 8, !tbaa !143
  store ptr %6, ptr %3, align 8, !tbaa !143
  %7 = load ptr, ptr %1, align 8, !tbaa !35
  store ptr %7, ptr %0, align 8, !tbaa !35
  %8 = getelementptr inbounds nuw i8, ptr %1, i64 16
  %9 = load ptr, ptr %8, align 8, !tbaa !39
  store ptr %9, ptr %4, align 8, !tbaa !39
  %.not = icmp eq ptr %6, null
  br i1 %.not, label %.loopexit, label %10

10:                                               ; preds = %2
  %11 = getelementptr inbounds nuw i8, ptr %6, i64 32
  %12 = load ptr, ptr %11, align 8, !tbaa !123
  %.not1113 = icmp eq ptr %12, null
  br i1 %.not1113, label %.loopexit, label %.lr.ph.preheader

.lr.ph.preheader:                                 ; preds = %10
  %13 = icmp eq ptr %1, %12
  br i1 %13, label %.lr.ph._crit_edge, label %.lr.ph18

.lr.ph18:                                         ; preds = %.lr.ph.preheader, %.lr.ph
  %14 = phi ptr [ %16, %.lr.ph ], [ %12, %.lr.ph.preheader ]
  %15 = getelementptr inbounds nuw i8, ptr %14, i64 16
  %16 = load ptr, ptr %15, align 8, !tbaa !123
  %.not11 = icmp eq ptr %16, null
  br i1 %.not11, label %.loopexit, label %.lr.ph, !llvm.loop !144

.lr.ph:                                           ; preds = %.lr.ph18
  %17 = icmp eq ptr %1, %16
  br i1 %17, label %.lr.ph._crit_edge.loopexit, label %.lr.ph18, !llvm.loop !144

.lr.ph._crit_edge.loopexit:                       ; preds = %.lr.ph
  %18 = getelementptr inbounds nuw i8, ptr %14, i64 16
  br label %.lr.ph._crit_edge

.lr.ph._crit_edge:                                ; preds = %.lr.ph._crit_edge.loopexit, %.lr.ph.preheader
  %.014.lcssa = phi ptr [ %11, %.lr.ph.preheader ], [ %18, %.lr.ph._crit_edge.loopexit ]
  store ptr %0, ptr %.014.lcssa, align 8, !tbaa !123
  br label %.loopexit

.loopexit:                                        ; preds = %.lr.ph18, %10, %.lr.ph._crit_edge, %2
  ret void
}